; Function Attrs: mustprogress uwtable
define void @_ZN10open_spiel8efg_game19GetKuhnPokerEFGDataB5cxx11Ev(ptr dead_on_unwind noalias writable sret(%"class.std::__cxx11::basic_string") align 8 %0) local_unnamed_addr #3 personality ptr @__gxx_personality_v0 {
  %2 = alloca %"class.std::allocator", align 1
  %3 = load ptr, ptr @_ZN10open_spiel8efg_game12kKuhnEFGDataE, align 8
  call void @_ZNSaIcEC1Ev(ptr noundef nonnull align 1 dereferenceable(1) %2) #10
  %4 = invoke noundef ptr @_ZNSt7__cxx1112basic_stringIcSt11char_traitsIcESaIcEE13_M_local_dataEv(ptr noundef nonnull align 8 dereferenceable(32) %0)
          to label %.noexc unwind label %13

.noexc:                                           ; preds = %1
  invoke void @_ZNSt7__cxx1112basic_stringIcSt11char_traitsIcESaIcEE12_Alloc_hiderC1EPcRKS3_(ptr noundef nonnull align 8 dereferenceable(8) %0, ptr noundef %4, ptr noundef nonnull align 1 dereferenceable(1) %2)
          to label %.noexc1 unwind label %13

.noexc1:                                          ; preds = %.noexc
  %5 = icmp eq ptr %3, null
  br i1 %5, label %6, label %10

6:                                                ; preds = %.noexc1
  invoke void @_ZSt19__throw_logic_errorPKc(ptr noundef nonnull @.str.4) #11
          to label %7 unwind label %8

7:                                                ; preds = %6
  unreachable

8:                                                ; preds = %10, %6
  %9 = landingpad { ptr, i32 }
          cleanup
  call void @_ZNSaIcED2Ev(ptr noundef nonnull align 1 dereferenceable(1) %0) #10
  br label %.body

10:                                               ; preds = %.noexc1
  %11 = call noundef i64 @strlen(ptr noundef nonnull dereferenceable(1) %3) #10
  %12 = getelementptr inbounds i8, ptr %3, i64 %11
  invoke void @_ZNSt7__cxx1112basic_stringIcSt11char_traitsIcESaIcEE12_M_constructIPKcEEvT_S8_St20forward_iterator_tag(ptr noundef nonnull align 8 dereferenceable(32) %0, ptr noundef nonnull %3, ptr noundef nonnull %12)
          to label %_ZNSt7__cxx1112basic_stringIcSt11char_traitsIcESaIcEEC2IS3_EEPKcRKS3_.exit unwind label %8

_ZNSt7__cxx1112basic_stringIcSt11char_traitsIcESaIcEEC2IS3_EEPKcRKS3_.exit: ; preds = %10
  call void @_ZNSaIcED1Ev(ptr noundef nonnull align 1 dereferenceable(1) %2) #10
  ret void

13:                                               ; preds = %.noexc, %1
  %14 = landingpad { ptr, i32 }
          cleanup
  br label %.body

.body:                                            ; preds = %8, %13
  %eh.lpad-body = phi { ptr, i32 } [ %14, %13 ], [ %9, %8 ]
  call void @_ZNSaIcED1Ev(ptr noundef nonnull align 1 dereferenceable(1) %2) #10
  resume { ptr, i32 } %eh.lpad-body
}